target datalayout = "e-m:e-p270:32:32-p271:32:32-p272:64:64-i64:64-i128:128-f80:128-n8:16:32:64-S128"
target triple = "x86_64-pc-linux-gnu"

%struct.Vec_Int_t_ = type { i32, i32, ptr }
%struct.Vec_Ptr_t_ = type { i32, i32, ptr }
%struct.Gia_Man2Min_t_ = type { ptr, [2 x i32], [2 x ptr], [2 x ptr], ptr, ptr, ptr, ptr, ptr, i32, i32, i32, i32, i32, i32, i32 }
%struct.Vec_Wrd_t_ = type { i32, i32, ptr }

; Function Attrs: inlinehint nounwind uwtable
define internal void @Vec_PtrFreeP(ptr noundef %0) #3 {
  %2 = alloca ptr, align 8
  store ptr %0, ptr %2, align 8, !tbaa !34
  %3 = load ptr, ptr %2, align 8, !tbaa !34
  %4 = load ptr, ptr %3, align 8, !tbaa !27
  %5 = icmp eq ptr %4, null
  br i1 %5, label %6, label %7

6:                                                ; preds = %1
  br label %32

7:                                                ; preds = %1
  %8 = load ptr, ptr %2, align 8, !tbaa !34
  %9 = load ptr, ptr %8, align 8, !tbaa !27
  %10 = getelementptr inbounds nuw %struct.Vec_Ptr_t_, ptr %9, i32 0, i32 2
  %11 = load ptr, ptr %10, align 8, !tbaa !31
  %12 = icmp ne ptr %11, null
  br i1 %12, label %13, label %21

13:                                               ; preds = %7
  %14 = load ptr, ptr %2, align 8, !tbaa !34
  %15 = load ptr, ptr %14, align 8, !tbaa !27
  %16 = getelementptr inbounds nuw %struct.Vec_Ptr_t_, ptr %15, i32 0, i32 2
  %17 = load ptr, ptr %16, align 8, !tbaa !31
  call void @free(ptr noundef %17) #11
  %18 = load ptr, ptr %2, align 8, !tbaa !34
  %19 = load ptr, ptr %18, align 8, !tbaa !27
  %20 = getelementptr inbounds nuw %struct.Vec_Ptr_t_, ptr %19, i32 0, i32 2
  store ptr null, ptr %20, align 8, !tbaa !31
  br label %22

21:                                               ; preds = %7
  br label %22

22:                                               ; preds = %21, %13
  %23 = load ptr, ptr %2, align 8, !tbaa !34
  %24 = load ptr, ptr %23, align 8, !tbaa !27
  %25 = icmp ne ptr %24, null
  br i1 %25, label %26, label %30

26:                                               ; preds = %22
  %27 = load ptr, ptr %2, align 8, !tbaa !34
  %28 = load ptr, ptr %27, align 8, !tbaa !27
  call void @free(ptr noundef %28) #11
  %29 = load ptr, ptr %2, align 8, !tbaa !34
  store ptr null, ptr %29, align 8, !tbaa !27
  br label %31

30:                                               ; preds = %22
  br label %31

31:                                               ; preds = %30, %26
  br label %32

32:                                               ; preds = %31, %6
  ret void
}

; Function Attrs: inlinehint nounwind uwtable
define internal void @Vec_WrdFreeP(ptr noundef %0) #3 {
  %2 = alloca ptr, align 8
  store ptr %0, ptr %2, align 8, !tbaa !102
  %3 = load ptr, ptr %2, align 8, !tbaa !102
  %4 = load ptr, ptr %3, align 8, !tbaa !96
  %5 = icmp eq ptr %4, null
  br i1 %5, label %6, label %7

6:                                                ; preds = %1
  br label %32

7:                                                ; preds = %1
  %8 = load ptr, ptr %2, align 8, !tbaa !102
  %9 = load ptr, ptr %8, align 8, !tbaa !96
  %10 = getelementptr inbounds nuw %struct.Vec_Wrd_t_, ptr %9, i32 0, i32 2
  %11 = load ptr, ptr %10, align 8, !tbaa !101
  %12 = icmp ne ptr %11, null
  br i1 %12, label %13, label %21

13:                                               ; preds = %7
  %14 = load ptr, ptr %2, align 8, !tbaa !102
  %15 = load ptr, ptr %14, align 8, !tbaa !96
  %16 = getelementptr inbounds nuw %struct.Vec_Wrd_t_, ptr %15, i32 0, i32 2
  %17 = load ptr, ptr %16, align 8, !tbaa !101
  call void @free(ptr noundef %17) #11
  %18 = load ptr, ptr %2, align 8, !tbaa !102
  %19 = load ptr, ptr %18, align 8, !tbaa !96
  %20 = getelementptr inbounds nuw %struct.Vec_Wrd_t_, ptr %19, i32 0, i32 2
  store ptr null, ptr %20, align 8, !tbaa !101
  br label %22

21:                                               ; preds = %7
  br label %22

22:                                               ; preds = %21, %13
  %23 = load ptr, ptr %2, align 8, !tbaa !102
  %24 = load ptr, ptr %23, align 8, !tbaa !96
  %25 = icmp ne ptr %24, null
  br i1 %25, label %26, label %30

26:                                               ; preds = %22
  %27 = load ptr, ptr %2, align 8, !tbaa !102
  %28 = load ptr, ptr %27, align 8, !tbaa !96
  call void @free(ptr noundef %28) #11
  %29 = load ptr, ptr %2, align 8, !tbaa !102
  store ptr null, ptr %29, align 8, !tbaa !96
  br label %31

30:                                               ; preds = %22
  br label %31

31:                                               ; preds = %30, %26
  br label %32

32:                                               ; preds = %31, %6
  ret void
}

; Function Attrs: inlinehint nounwind uwtable
define internal void @Vec_IntFreeP(ptr noundef %0) #3 {
  %2 = alloca ptr, align 8
  store ptr %0, ptr %2, align 8, !tbaa !32
  %3 = load ptr, ptr %2, align 8, !tbaa !32
  %4 = load ptr, ptr %3, align 8, !tbaa !15
  %5 = icmp eq ptr %4, null
  br i1 %5, label %6, label %7

6:                                                ; preds = %1
  br label %32

7:                                                ; preds = %1
  %8 = load ptr, ptr %2, align 8, !tbaa !32
  %9 = load ptr, ptr %8, align 8, !tbaa !15
  %10 = getelementptr inbounds nuw %struct.Vec_Int_t_, ptr %9, i32 0, i32 2
  %11 = load ptr, ptr %10, align 8, !tbaa !26
  %12 = icmp ne ptr %11, null
  br i1 %12, label %13, label %21

13:                                               ; preds = %7
  %14 = load ptr, ptr %2, align 8, !tbaa !32
  %15 = load ptr, ptr %14, align 8, !tbaa !15
  %16 = getelementptr inbounds nuw %struct.Vec_Int_t_, ptr %15, i32 0, i32 2
  %17 = load ptr, ptr %16, align 8, !tbaa !26
  call void @free(ptr noundef %17) #11
  %18 = load ptr, ptr %2, align 8, !tbaa !32
  %19 = load ptr, ptr %18, align 8, !tbaa !15
  %20 = getelementptr inbounds nuw %struct.Vec_Int_t_, ptr %19, i32 0, i32 2
  store ptr null, ptr %20, align 8, !tbaa !26
  br label %22

21:                                               ; preds = %7
  br label %22

22:                                               ; preds = %21, %13
  %23 = load ptr, ptr %2, align 8, !tbaa !32
  %24 = load ptr, ptr %23, align 8, !tbaa !15
  %25 = icmp ne ptr %24, null
  br i1 %25, label %26, label %30

26:                                               ; preds = %22
  %27 = load ptr, ptr %2, align 8, !tbaa !32
  %28 = load ptr, ptr %27, align 8, !tbaa !15
  call void @free(ptr noundef %28) #11
  %29 = load ptr, ptr %2, align 8, !tbaa !32
  store ptr null, ptr %29, align 8, !tbaa !15
  br label %31

30:                                               ; preds = %22
  br label %31

31:                                               ; preds = %30, %26
  br label %32

32:                                               ; preds = %31, %6
  ret void
}

; Function Attrs: nounwind uwtable
define void @Gia_Man2SuppStop(ptr noundef %0) #0 {
  %2 = alloca ptr, align 8
  store ptr %0, ptr %2, align 8, !tbaa !82
  %3 = load ptr, ptr %2, align 8, !tbaa !82
  %4 = getelementptr inbounds nuw %struct.Gia_Man2Min_t_, ptr %3, i32 0, i32 2
  %5 = getelementptr inbounds [2 x ptr], ptr %4, i64 0, i64 0
  call void @Vec_IntFreeP(ptr noundef %5)
  %6 = load ptr, ptr %2, align 8, !tbaa !82
  %7 = getelementptr inbounds nuw %struct.Gia_Man2Min_t_, ptr %6, i32 0, i32 2
  %8 = getelementptr inbounds [2 x ptr], ptr %7, i64 0, i64 1
  call void @Vec_IntFreeP(ptr noundef %8)
  %9 = load ptr, ptr %2, align 8, !tbaa !82
  %10 = getelementptr inbounds nuw %struct.Gia_Man2Min_t_, ptr %9, i32 0, i32 3
  %11 = getelementptr inbounds [2 x ptr], ptr %10, i64 0, i64 0
  call void @Vec_IntFreeP(ptr noundef %11)
  %12 = load ptr, ptr %2, align 8, !tbaa !82
  %13 = getelementptr inbounds nuw %struct.Gia_Man2Min_t_, ptr %12, i32 0, i32 3
  %14 = getelementptr inbounds [2 x ptr], ptr %13, i64 0, i64 1
  call void @Vec_IntFreeP(ptr noundef %14)
  %15 = load ptr, ptr %2, align 8, !tbaa !82
  %16 = getelementptr inbounds nuw %struct.Gia_Man2Min_t_, ptr %15, i32 0, i32 0
  %17 = load ptr, ptr %16, align 8, !tbaa !84
  call void @Gia_ManCleanMark01(ptr noundef %17)
  %18 = load ptr, ptr %2, align 8, !tbaa !82
  %19 = getelementptr inbounds nuw %struct.Gia_Man2Min_t_, ptr %18, i32 0, i32 4
  %20 = load ptr, ptr %19, align 8, !tbaa !87
  call void @satoko_destroy(ptr noundef %20)
  %21 = load ptr, ptr %2, align 8, !tbaa !82
  %22 = getelementptr inbounds nuw %struct.Gia_Man2Min_t_, ptr %21, i32 0, i32 5
  call void @Vec_WrdFreeP(ptr noundef %22)
  %23 = load ptr, ptr %2, align 8, !tbaa !82
  %24 = getelementptr inbounds nuw %struct.Gia_Man2Min_t_, ptr %23, i32 0, i32 6
  call void @Vec_PtrFreeP(ptr noundef %24)
  %25 = load ptr, ptr %2, align 8, !tbaa !82
  %26 = getelementptr inbounds nuw %struct.Gia_Man2Min_t_, ptr %25, i32 0, i32 7
  call void @Vec_PtrFreeP(ptr noundef %26)
  %27 = load ptr, ptr %2, align 8, !tbaa !82
  %28 = getelementptr inbounds nuw %struct.Gia_Man2Min_t_, ptr %27, i32 0, i32 8
  call void @Vec_IntFreeP(ptr noundef %28)
  %29 = load ptr, ptr %2, align 8, !tbaa !82
  %30 = icmp ne ptr %29, null
  br i1 %30, label %31, label %33

31:                                               ; preds = %1
  %32 = load ptr, ptr %2, align 8, !tbaa !82
  call void @free(ptr noundef %32) #11
  store ptr null, ptr %2, align 8, !tbaa !82
  br label %34

33:                                               ; preds = %1
  br label %34

34:                                               ; preds = %33, %31
  ret void
}