; Function Attrs: nounwind uwtable
define void @Gia_Man2SuppStop(ptr noundef captures(none) %0) local_unnamed_addr #0 {
  %2 = getelementptr inbounds nuw i8, ptr %0, i64 16
  %3 = load ptr, ptr %2, align 8, !tbaa !18
  %4 = icmp eq ptr %3, null
  br i1 %4, label %Vec_IntFreeP.exit, label %5

5:                                                ; preds = %1
  %6 = getelementptr inbounds nuw i8, ptr %3, i64 8
  %7 = load ptr, ptr %6, align 8, !tbaa !17
  %.not.i = icmp eq ptr %7, null
  br i1 %.not.i, label %10, label %.thread.i

.thread.i:                                        ; preds = %5
  tail call void @free(ptr noundef nonnull %7) #17
  %8 = load ptr, ptr %2, align 8, !tbaa !18
  %9 = getelementptr inbounds nuw i8, ptr %8, i64 8
  store ptr null, ptr %9, align 8, !tbaa !17
  br label %10

10:                                               ; preds = %.thread.i, %5
  %11 = phi ptr [ %8, %.thread.i ], [ %3, %5 ]
  tail call void @free(ptr noundef nonnull %11) #17
  store ptr null, ptr %2, align 8, !tbaa !18
  br label %Vec_IntFreeP.exit

Vec_IntFreeP.exit:                                ; preds = %1, %10
  %12 = getelementptr inbounds nuw i8, ptr %0, i64 24
  %13 = load ptr, ptr %12, align 8, !tbaa !18
  %14 = icmp eq ptr %13, null
  br i1 %14, label %Vec_IntFreeP.exit14, label %15

15:                                               ; preds = %Vec_IntFreeP.exit
  %16 = getelementptr inbounds nuw i8, ptr %13, i64 8
  %17 = load ptr, ptr %16, align 8, !tbaa !17
  %.not.i12 = icmp eq ptr %17, null
  br i1 %.not.i12, label %20, label %.thread.i13

.thread.i13:                                      ; preds = %15
  tail call void @free(ptr noundef nonnull %17) #17
  %18 = load ptr, ptr %12, align 8, !tbaa !18
  %19 = getelementptr inbounds nuw i8, ptr %18, i64 8
  store ptr null, ptr %19, align 8, !tbaa !17
  br label %20

20:                                               ; preds = %.thread.i13, %15
  %21 = phi ptr [ %18, %.thread.i13 ], [ %13, %15 ]
  tail call void @free(ptr noundef nonnull %21) #17
  store ptr null, ptr %12, align 8, !tbaa !18
  br label %Vec_IntFreeP.exit14

Vec_IntFreeP.exit14:                              ; preds = %Vec_IntFreeP.exit, %20
  %22 = getelementptr inbounds nuw i8, ptr %0, i64 32
  %23 = load ptr, ptr %22, align 8, !tbaa !18
  %24 = icmp eq ptr %23, null
  br i1 %24, label %Vec_IntFreeP.exit17, label %25

25:                                               ; preds = %Vec_IntFreeP.exit14
  %26 = getelementptr inbounds nuw i8, ptr %23, i64 8
  %27 = load ptr, ptr %26, align 8, !tbaa !17
  %.not.i15 = icmp eq ptr %27, null
  br i1 %.not.i15, label %30, label %.thread.i16

.thread.i16:                                      ; preds = %25
  tail call void @free(ptr noundef nonnull %27) #17
  %28 = load ptr, ptr %22, align 8, !tbaa !18
  %29 = getelementptr inbounds nuw i8, ptr %28, i64 8
  store ptr null, ptr %29, align 8, !tbaa !17
  br label %30

30:                                               ; preds = %.thread.i16, %25
  %31 = phi ptr [ %28, %.thread.i16 ], [ %23, %25 ]
  tail call void @free(ptr noundef nonnull %31) #17
  store ptr null, ptr %22, align 8, !tbaa !18
  br label %Vec_IntFreeP.exit17

Vec_IntFreeP.exit17:                              ; preds = %Vec_IntFreeP.exit14, %30
  %32 = getelementptr inbounds nuw i8, ptr %0, i64 40
  %33 = load ptr, ptr %32, align 8, !tbaa !18
  %34 = icmp eq ptr %33, null
  br i1 %34, label %Vec_IntFreeP.exit20, label %35

35:                                               ; preds = %Vec_IntFreeP.exit17
  %36 = getelementptr inbounds nuw i8, ptr %33, i64 8
  %37 = load ptr, ptr %36, align 8, !tbaa !17
  %.not.i18 = icmp eq ptr %37, null
  br i1 %.not.i18, label %40, label %.thread.i19

.thread.i19:                                      ; preds = %35
  tail call void @free(ptr noundef nonnull %37) #17
  %38 = load ptr, ptr %32, align 8, !tbaa !18
  %39 = getelementptr inbounds nuw i8, ptr %38, i64 8
  store ptr null, ptr %39, align 8, !tbaa !17
  br label %40

40:                                               ; preds = %.thread.i19, %35
  %41 = phi ptr [ %38, %.thread.i19 ], [ %33, %35 ]
  tail call void @free(ptr noundef nonnull %41) #17
  store ptr null, ptr %32, align 8, !tbaa !18
  br label %Vec_IntFreeP.exit20

Vec_IntFreeP.exit20:                              ; preds = %Vec_IntFreeP.exit17, %40
  %42 = load ptr, ptr %0, align 8, !tbaa !71
  tail call void @Gia_ManCleanMark01(ptr noundef %42) #17
  %43 = getelementptr inbounds nuw i8, ptr %0, i64 48
  %44 = load ptr, ptr %43, align 8, !tbaa !74
  tail call void @satoko_destroy(ptr noundef %44) #17
  %45 = getelementptr inbounds nuw i8, ptr %0, i64 56
  %46 = load ptr, ptr %45, align 8, !tbaa !88
  %47 = icmp eq ptr %46, null
  br i1 %47, label %Vec_WrdFreeP.exit, label %48

48:                                               ; preds = %Vec_IntFreeP.exit20
  %49 = getelementptr inbounds nuw i8, ptr %46, i64 8
  %50 = load ptr, ptr %49, align 8, !tbaa !79
  %.not.i21 = icmp eq ptr %50, null
  br i1 %.not.i21, label %53, label %.thread.i22

.thread.i22:                                      ; preds = %48
  tail call void @free(ptr noundef nonnull %50) #17
  %51 = load ptr, ptr %45, align 8, !tbaa !88
  %52 = getelementptr inbounds nuw i8, ptr %51, i64 8
  store ptr null, ptr %52, align 8, !tbaa !79
  br label %53

53:                                               ; preds = %.thread.i22, %48
  %54 = phi ptr [ %51, %.thread.i22 ], [ %46, %48 ]
  tail call void @free(ptr noundef nonnull %54) #17
  store ptr null, ptr %45, align 8, !tbaa !88
  br label %Vec_WrdFreeP.exit

Vec_WrdFreeP.exit:                                ; preds = %Vec_IntFreeP.exit20, %53
  %55 = getelementptr inbounds nuw i8, ptr %0, i64 64
  %56 = load ptr, ptr %55, align 8, !tbaa !27
  %57 = icmp eq ptr %56, null
  br i1 %57, label %Vec_PtrFreeP.exit, label %58

58:                                               ; preds = %Vec_WrdFreeP.exit
  %59 = getelementptr inbounds nuw i8, ptr %56, i64 8
  %60 = load ptr, ptr %59, align 8, !tbaa !24
  %.not.i23 = icmp eq ptr %60, null
  br i1 %.not.i23, label %63, label %.thread.i24

.thread.i24:                                      ; preds = %58
  tail call void @free(ptr noundef nonnull %60) #17
  %61 = load ptr, ptr %55, align 8, !tbaa !27
  %62 = getelementptr inbounds nuw i8, ptr %61, i64 8
  store ptr null, ptr %62, align 8, !tbaa !24
  br label %63

63:                                               ; preds = %.thread.i24, %58
  %64 = phi ptr [ %61, %.thread.i24 ], [ %56, %58 ]
  tail call void @free(ptr noundef nonnull %64) #17
  store ptr null, ptr %55, align 8, !tbaa !27
  br label %Vec_PtrFreeP.exit

Vec_PtrFreeP.exit:                                ; preds = %Vec_WrdFreeP.exit, %63
  %65 = getelementptr inbounds nuw i8, ptr %0, i64 72
  %66 = load ptr, ptr %65, align 8, !tbaa !27
  %67 = icmp eq ptr %66, null
  br i1 %67, label %Vec_PtrFreeP.exit27, label %68

68:                                               ; preds = %Vec_PtrFreeP.exit
  %69 = getelementptr inbounds nuw i8, ptr %66, i64 8
  %70 = load ptr, ptr %69, align 8, !tbaa !24
  %.not.i25 = icmp eq ptr %70, null
  br i1 %.not.i25, label %73, label %.thread.i26

.thread.i26:                                      ; preds = %68
  tail call void @free(ptr noundef nonnull %70) #17
  %71 = load ptr, ptr %65, align 8, !tbaa !27
  %72 = getelementptr inbounds nuw i8, ptr %71, i64 8
  store ptr null, ptr %72, align 8, !tbaa !24
  br label %73

73:                                               ; preds = %.thread.i26, %68
  %74 = phi ptr [ %71, %.thread.i26 ], [ %66, %68 ]
  tail call void @free(ptr noundef nonnull %74) #17
  store ptr null, ptr %65, align 8, !tbaa !27
  br label %Vec_PtrFreeP.exit27

Vec_PtrFreeP.exit27:                              ; preds = %Vec_PtrFreeP.exit, %73
  %75 = getelementptr inbounds nuw i8, ptr %0, i64 80
  %76 = load ptr, ptr %75, align 8, !tbaa !18
  %77 = icmp eq ptr %76, null
  br i1 %77, label %Vec_IntFreeP.exit30, label %78

78:                                               ; preds = %Vec_PtrFreeP.exit27
  %79 = getelementptr inbounds nuw i8, ptr %76, i64 8
  %80 = load ptr, ptr %79, align 8, !tbaa !17
  %.not.i28 = icmp eq ptr %80, null
  br i1 %.not.i28, label %83, label %.thread.i29

.thread.i29:                                      ; preds = %78
  tail call void @free(ptr noundef nonnull %80) #17
  %81 = load ptr, ptr %75, align 8, !tbaa !18
  %82 = getelementptr inbounds nuw i8, ptr %81, i64 8
  store ptr null, ptr %82, align 8, !tbaa !17
  br label %83

83:                                               ; preds = %.thread.i29, %78
  %84 = phi ptr [ %81, %.thread.i29 ], [ %76, %78 ]
  tail call void @free(ptr noundef nonnull %84) #17
  br label %Vec_IntFreeP.exit30

Vec_IntFreeP.exit30:                              ; preds = %Vec_PtrFreeP.exit27, %83
  tail call void @free(ptr noundef nonnull %0) #17
  ret void
}